   1              		.cpu arm7tdmi
   2              		.fpu softvfp
   3              		.eabi_attribute 20, 1
   4              		.eabi_attribute 21, 1
   5              		.eabi_attribute 23, 3
   6              		.eabi_attribute 24, 1
   7              		.eabi_attribute 25, 1
   8              		.eabi_attribute 26, 1
   9              		.eabi_attribute 30, 6
  10              		.eabi_attribute 18, 4
  11              		.file	"player.c"
  21              	.Ltext0:
  22              		.file 1 "../player.c"
 1370              		.align	2
 1371              		.global	player_init
 1373              	player_init:
 1374              	.LFB0:
   1:../player.c   **** #include "config.h"
   2:../player.c   **** #include "pixmaps.h"
   3:../player.c   **** #include "wavs.h"
   4:../player.c   **** #include "player.h"
   5:../player.c   **** 
   6:../player.c   **** static void player_draw( Player *self );
   7:../player.c   **** static void player_clear( Player *self );
   8:../player.c   **** 
   9:../player.c   **** void player_init( Player *self )
  10:../player.c   **** {
 1375              		.loc 1 10 0
 1376              		.cfi_startproc
 1377              		@ Function supports interworking.
 1378              		@ args = 0, pretend = 0, frame = 8
 1379              		@ frame_needed = 1, uses_anonymous_args = 0
 1380 0000 0DC0A0E1 		mov	ip, sp
 1381              	.LCFI0:
 1382              		.cfi_def_cfa_register 12
 1383 0004 00D82DE9 		stmfd	sp!, {fp, ip, lr, pc}
 1384 0008 04B04CE2 		sub	fp, ip, #4
 1385              		.cfi_offset 14, -8
 1386              		.cfi_offset 13, -12
 1387              		.cfi_offset 11, -16
 1388              	.LCFI1:
 1389              		.cfi_def_cfa 11, 4
 1390 000c 08D04DE2 		sub	sp, sp, #8
 1391 0010 10000BE5 		str	r0, [fp, #-16]
  11:../player.c   ****     self->state = playerStopped;
 1392              		.loc 1 11 0
 1393 0014 10301BE5 		ldr	r3, [fp, #-16]
 1394 0018 0020A0E3 		mov	r2, #0
 1395 001c 0020C3E5 		strb	r2, [r3, #0]
  12:../player.c   ****     self->col = PLAYER_MIN_COL;
 1396              		.loc 1 12 0
 1397 0020 10301BE5 		ldr	r3, [fp, #-16]
 1398 0024 0020A0E3 		mov	r2, #0
 1399 0028 B420C3E1 		strh	r2, [r3, #4]	@ movhi
  13:../player.c   ****     self->row = PLAYER_ROW;
 1400              		.loc 1 13 0
 1401 002c 10301BE5 		ldr	r3, [fp, #-16]
 1402 0030 6820A0E3 		mov	r2, #104
 1403 0034 B620C3E1 		strh	r2, [r3, #6]	@ movhi
  14:../player.c   ****     self->sprite = (Sprite){ PLAYER_WIDTH, PLAYER_HEIGHT, playerPixMap };
 1404              		.loc 1 14 0
 1405 0038 10301BE5 		ldr	r3, [fp, #-16]
 1406 003c 74209FE5 		ldr	r2, .L2
 1407 0040 083083E2 		add	r3, r3, #8
 1408 0044 030092E8 		ldmia	r2, {r0, r1}
 1409 0048 030083E8 		stmia	r3, {r0, r1}
  15:../player.c   ****     self->explosionSpriteSet = 0;
 1410              		.loc 1 15 0
 1411 004c 10301BE5 		ldr	r3, [fp, #-16]
 1412 0050 0020A0E3 		mov	r2, #0
 1413 0054 1020C3E5 		strb	r2, [r3, #16]
  16:../player.c   ****     self->explosionSprite[0] = (Sprite){ PLAYER_WIDTH, PLAYER_HEIGHT, playerExplosionPixMap_0 };
 1414              		.loc 1 16 0
 1415 0058 10301BE5 		ldr	r3, [fp, #-16]
 1416 005c 58209FE5 		ldr	r2, .L2+4
 1417 0060 143083E2 		add	r3, r3, #20
 1418 0064 030092E8 		ldmia	r2, {r0, r1}
 1419 0068 030083E8 		stmia	r3, {r0, r1}
  17:../player.c   ****     self->explosionSprite[1] = (Sprite){ PLAYER_WIDTH, PLAYER_HEIGHT, playerExplosionPixMap_1 };
 1420              		.loc 1 17 0
 1421 006c 10301BE5 		ldr	r3, [fp, #-16]
 1422 0070 48209FE5 		ldr	r2, .L2+8
 1423 0074 1C3083E2 		add	r3, r3, #28
 1424 0078 030092E8 		ldmia	r2, {r0, r1}
 1425 007c 030083E8 		stmia	r3, {r0, r1}
  18:../player.c   ****     self->explosionSound     = (Sound){ PLAYER_EXPLOSION };
 1426              		.loc 1 18 0
 1427 0080 10301BE5 		ldr	r3, [fp, #-16]
 1428 0084 38209FE5 		ldr	r2, .L2+12
 1429 0088 242083E5 		str	r2, [r3, #36]
  19:../player.c   ****     lives_init( &self->lives );
 1430              		.loc 1 19 0
 1431 008c 10301BE5 		ldr	r3, [fp, #-16]
 1432 0090 283083E2 		add	r3, r3, #40
 1433 0094 0300A0E1 		mov	r0, r3
 1434 0098 FEFFFFEB 		bl	lives_init
  20:../player.c   ****     score_init( &self->score );
 1435              		.loc 1 20 0
 1436 009c 10301BE5 		ldr	r3, [fp, #-16]
 1437 00a0 2E3083E2 		add	r3, r3, #46
 1438 00a4 0300A0E1 		mov	r0, r3
 1439 00a8 FEFFFFEB 		bl	score_init
  21:../player.c   **** }
 1440              		.loc 1 21 0
 1441 00ac 0CD04BE2 		sub	sp, fp, #12
 1442 00b0 00689DE8 		ldmfd	sp, {fp, sp, lr}
 1443 00b4 1EFF2FE1 		bx	lr
 1444              	.L3:
 1445              		.align	2
 1446              	.L2:
 1447 00b8 00000000 		.word	C.0.4948
 1448 00bc 08000000 		.word	C.1.4949
 1449 00c0 10000000 		.word	C.2.4950
 1450 00c4 000B4E0C 		.word	206441216
 1451              		.cfi_endproc
 1452              	.LFE0:
 1454              		.align	2
 1456              	player_draw:
 1457              	.LFB1:
  22:../player.c   **** 
  23:../player.c   **** static void player_draw( Player *self )
  24:../player.c   **** { 
 1458              		.loc 1 24 0
 1459              		.cfi_startproc
 1460              		@ Function supports interworking.
 1461              		@ args = 0, pretend = 0, frame = 8
 1462              		@ frame_needed = 1, uses_anonymous_args = 0
 1463 00c8 0DC0A0E1 		mov	ip, sp
 1464              	.LCFI2:
 1465              		.cfi_def_cfa_register 12
 1466 00cc 00D82DE9 		stmfd	sp!, {fp, ip, lr, pc}
 1467 00d0 04B04CE2 		sub	fp, ip, #4
 1468              		.cfi_offset 14, -8
 1469              		.cfi_offset 13, -12
 1470              		.cfi_offset 11, -16
 1471              	.LCFI3:
 1472              		.cfi_def_cfa 11, 4
 1473 00d4 08D04DE2 		sub	sp, sp, #8
 1474 00d8 10000BE5 		str	r0, [fp, #-16]
  25:../player.c   **** }
 1475              		.loc 1 25 0
 1476 00dc 0CD04BE2 		sub	sp, fp, #12
 1477 00e0 00689DE8 		ldmfd	sp, {fp, sp, lr}
 1478 00e4 1EFF2FE1 		bx	lr
 1479              		.cfi_endproc
 1480              	.LFE1:
 1482              		.align	2
 1484              	player_clear:
 1485              	.LFB2:
  26:../player.c   **** 
  27:../player.c   **** static void player_clear( Player *self )
  28:../player.c   **** {
 1486              		.loc 1 28 0
 1487              		.cfi_startproc
 1488              		@ Function supports interworking.
 1489              		@ args = 0, pretend = 0, frame = 8
 1490              		@ frame_needed = 1, uses_anonymous_args = 0
 1491 00e8 0DC0A0E1 		mov	ip, sp
 1492              	.LCFI4:
 1493              		.cfi_def_cfa_register 12
 1494 00ec 00D82DE9 		stmfd	sp!, {fp, ip, lr, pc}
 1495 00f0 04B04CE2 		sub	fp, ip, #4
 1496              		.cfi_offset 14, -8
 1497              		.cfi_offset 13, -12
 1498              		.cfi_offset 11, -16
 1499              	.LCFI5:
 1500              		.cfi_def_cfa 11, 4
 1501 00f4 08D04DE2 		sub	sp, sp, #8
 1502 00f8 10000BE5 		str	r0, [fp, #-16]
  29:../player.c   **** }
 1503              		.loc 1 29 0
 1504 00fc 0CD04BE2 		sub	sp, fp, #12
 1505 0100 00689DE8 		ldmfd	sp, {fp, sp, lr}
 1506 0104 1EFF2FE1 		bx	lr
 1507              		.cfi_endproc
 1508              	.LFE2:
 1510              		.align	2
 1511              		.global	player_launch
 1513              	player_launch:
 1514              	.LFB3:
  30:../player.c   **** 
  31:../player.c   **** void player_launch( Player *self )
  32:../player.c   **** {
 1515              		.loc 1 32 0
 1516              		.cfi_startproc
 1517              		@ Function supports interworking.
 1518              		@ args = 0, pretend = 0, frame = 8
 1519              		@ frame_needed = 1, uses_anonymous_args = 0
 1520 0108 0DC0A0E1 		mov	ip, sp
 1521              	.LCFI6:
 1522              		.cfi_def_cfa_register 12
 1523 010c 00D82DE9 		stmfd	sp!, {fp, ip, lr, pc}
 1524 0110 04B04CE2 		sub	fp, ip, #4
 1525              		.cfi_offset 14, -8
 1526              		.cfi_offset 13, -12
 1527              		.cfi_offset 11, -16
 1528              	.LCFI7:
 1529              		.cfi_def_cfa 11, 4
 1530 0114 08D04DE2 		sub	sp, sp, #8
 1531 0118 10000BE5 		str	r0, [fp, #-16]
  33:../player.c   **** }
 1532              		.loc 1 33 0
 1533 011c 0CD04BE2 		sub	sp, fp, #12
 1534 0120 00689DE8 		ldmfd	sp, {fp, sp, lr}
 1535 0124 1EFF2FE1 		bx	lr
 1536              		.cfi_endproc
 1537              	.LFE3:
 1539              		.align	2
 1540              		.global	player_update
 1542              	player_update:
 1543              	.LFB4:
  34:../player.c   **** 
  35:../player.c   **** void player_update( Player *self )
  36:../player.c   **** {
 1544              		.loc 1 36 0
 1545              		.cfi_startproc
 1546              		@ Function supports interworking.
 1547              		@ args = 0, pretend = 0, frame = 8
 1548              		@ frame_needed = 1, uses_anonymous_args = 0
 1549 0128 0DC0A0E1 		mov	ip, sp
 1550              	.LCFI8:
 1551              		.cfi_def_cfa_register 12
 1552 012c 00D82DE9 		stmfd	sp!, {fp, ip, lr, pc}
 1553 0130 04B04CE2 		sub	fp, ip, #4
 1554              		.cfi_offset 14, -8
 1555              		.cfi_offset 13, -12
 1556              		.cfi_offset 11, -16
 1557              	.LCFI9:
 1558              		.cfi_def_cfa 11, 4
 1559 0134 08D04DE2 		sub	sp, sp, #8
 1560 0138 10000BE5 		str	r0, [fp, #-16]
  37:../player.c   **** }
 1561              		.loc 1 37 0
 1562 013c 0CD04BE2 		sub	sp, fp, #12
 1563 0140 00689DE8 		ldmfd	sp, {fp, sp, lr}
 1564 0144 1EFF2FE1 		bx	lr
 1565              		.cfi_endproc
 1566              	.LFE4:
 1568              		.align	2
 1569              		.global	player_left
 1571              	player_left:
 1572              	.LFB5:
  38:../player.c   **** 
  39:../player.c   **** void player_left( Player *self )
  40:../player.c   **** {
 1573              		.loc 1 40 0
 1574              		.cfi_startproc
 1575              		@ Function supports interworking.
 1576              		@ args = 0, pretend = 0, frame = 8
 1577              		@ frame_needed = 1, uses_anonymous_args = 0
 1578 0148 0DC0A0E1 		mov	ip, sp
 1579              	.LCFI10:
 1580              		.cfi_def_cfa_register 12
 1581 014c 00D82DE9 		stmfd	sp!, {fp, ip, lr, pc}
 1582 0150 04B04CE2 		sub	fp, ip, #4
 1583              		.cfi_offset 14, -8
 1584              		.cfi_offset 13, -12
 1585              		.cfi_offset 11, -16
 1586              	.LCFI11:
 1587              		.cfi_def_cfa 11, 4
 1588 0154 08D04DE2 		sub	sp, sp, #8
 1589 0158 10000BE5 		str	r0, [fp, #-16]
  41:../player.c   **** }
 1590              		.loc 1 41 0
 1591 015c 0CD04BE2 		sub	sp, fp, #12
 1592 0160 00689DE8 		ldmfd	sp, {fp, sp, lr}
 1593 0164 1EFF2FE1 		bx	lr
 1594              		.cfi_endproc
 1595              	.LFE5:
 1597              		.align	2
 1598              		.global	player_right
 1600              	player_right:
 1601              	.LFB6:
  42:../player.c   **** 
  43:../player.c   **** void player_right( Player *self )
  44:../player.c   **** {
 1602              		.loc 1 44 0
 1603              		.cfi_startproc
 1604              		@ Function supports interworking.
 1605              		@ args = 0, pretend = 0, frame = 8
 1606              		@ frame_needed = 1, uses_anonymous_args = 0
 1607 0168 0DC0A0E1 		mov	ip, sp
 1608              	.LCFI12:
 1609              		.cfi_def_cfa_register 12
 1610 016c 00D82DE9 		stmfd	sp!, {fp, ip, lr, pc}
 1611 0170 04B04CE2 		sub	fp, ip, #4
 1612              		.cfi_offset 14, -8
 1613              		.cfi_offset 13, -12
 1614              		.cfi_offset 11, -16
 1615              	.LCFI13:
 1616              		.cfi_def_cfa 11, 4
 1617 0174 08D04DE2 		sub	sp, sp, #8
 1618 0178 10000BE5 		str	r0, [fp, #-16]
  45:../player.c   **** }
 1619              		.loc 1 45 0
 1620 017c 0CD04BE2 		sub	sp, fp, #12
 1621 0180 00689DE8 		ldmfd	sp, {fp, sp, lr}
 1622 0184 1EFF2FE1 		bx	lr
 1623              		.cfi_endproc
 1624              	.LFE6:
 1626              		.align	2
 1627              		.global	player_stop
 1629              	player_stop:
 1630              	.LFB7:
  46:../player.c   **** 
  47:../player.c   **** void player_stop( Player *self )
  48:../player.c   **** {
 1631              		.loc 1 48 0
 1632              		.cfi_startproc
 1633              		@ Function supports interworking.
 1634              		@ args = 0, pretend = 0, frame = 8
 1635              		@ frame_needed = 1, uses_anonymous_args = 0
 1636 0188 0DC0A0E1 		mov	ip, sp
 1637              	.LCFI14:
 1638              		.cfi_def_cfa_register 12
 1639 018c 00D82DE9 		stmfd	sp!, {fp, ip, lr, pc}
 1640 0190 04B04CE2 		sub	fp, ip, #4
 1641              		.cfi_offset 14, -8
 1642              		.cfi_offset 13, -12
 1643              		.cfi_offset 11, -16
 1644              	.LCFI15:
 1645              		.cfi_def_cfa 11, 4
 1646 0194 08D04DE2 		sub	sp, sp, #8
 1647 0198 10000BE5 		str	r0, [fp, #-16]
  49:../player.c   **** }
 1648              		.loc 1 49 0
 1649 019c 0CD04BE2 		sub	sp, fp, #12
 1650 01a0 00689DE8 		ldmfd	sp, {fp, sp, lr}
 1651 01a4 1EFF2FE1 		bx	lr
 1652              		.cfi_endproc
 1653              	.LFE7:
 1655              		.align	2
 1656              		.global	player_hit
 1658              	player_hit:
 1659              	.LFB8:
  50:../player.c   **** 
  51:../player.c   **** void player_hit( Player *self )
  52:../player.c   **** {
 1660              		.loc 1 52 0
 1661              		.cfi_startproc
 1662              		@ Function supports interworking.
 1663              		@ args = 0, pretend = 0, frame = 8
 1664              		@ frame_needed = 1, uses_anonymous_args = 0
 1665 01a8 0DC0A0E1 		mov	ip, sp
 1666              	.LCFI16:
 1667              		.cfi_def_cfa_register 12
 1668 01ac 00D82DE9 		stmfd	sp!, {fp, ip, lr, pc}
 1669 01b0 04B04CE2 		sub	fp, ip, #4
 1670              		.cfi_offset 14, -8
 1671              		.cfi_offset 13, -12
 1672              		.cfi_offset 11, -16
 1673              	.LCFI17:
 1674              		.cfi_def_cfa 11, 4
 1675 01b4 08D04DE2 		sub	sp, sp, #8
 1676 01b8 10000BE5 		str	r0, [fp, #-16]
  53:../player.c   **** }
 1677              		.loc 1 53 0
 1678 01bc 0CD04BE2 		sub	sp, fp, #12
 1679 01c0 00689DE8 		ldmfd	sp, {fp, sp, lr}
 1680 01c4 1EFF2FE1 		bx	lr
 1681              		.cfi_endproc
 1682              	.LFE8:
 1684              		.align	2
 1685              		.global	player_invaded
 1687              	player_invaded:
 1688              	.LFB9:
  54:../player.c   **** 
  55:../player.c   **** void player_invaded( Player *self )
  56:../player.c   **** {
 1689              		.loc 1 56 0
 1690              		.cfi_startproc
 1691              		@ Function supports interworking.
 1692              		@ args = 0, pretend = 0, frame = 8
 1693              		@ frame_needed = 1, uses_anonymous_args = 0
 1694 01c8 0DC0A0E1 		mov	ip, sp
 1695              	.LCFI18:
 1696              		.cfi_def_cfa_register 12
 1697 01cc 00D82DE9 		stmfd	sp!, {fp, ip, lr, pc}
 1698 01d0 04B04CE2 		sub	fp, ip, #4
 1699              		.cfi_offset 14, -8
 1700              		.cfi_offset 13, -12
 1701              		.cfi_offset 11, -16
 1702              	.LCFI19:
 1703              		.cfi_def_cfa 11, 4
 1704 01d4 08D04DE2 		sub	sp, sp, #8
 1705 01d8 10000BE5 		str	r0, [fp, #-16]
  57:../player.c   **** }
 1706              		.loc 1 57 0
 1707 01dc 0CD04BE2 		sub	sp, fp, #12
 1708 01e0 00689DE8 		ldmfd	sp, {fp, sp, lr}
 1709 01e4 1EFF2FE1 		bx	lr
 1710              		.cfi_endproc
 1711              	.LFE9:
 1713              		.section	.rodata
 1714              		.align	2
 1717              	C.0.4948:
 1718 0000 1000     		.short	16
 1719 0002 0800     		.short	8
 1720 0004 00000000 		.word	playerPixMap
 1721              		.align	2
 1724              	C.1.4949:
 1725 0008 1000     		.short	16
 1726 000a 0800     		.short	8
 1727 000c 00000000 		.word	playerExplosionPixMap_0
 1728              		.align	2
 1731              	C.2.4950:
 1732 0010 1000     		.short	16
 1733 0012 0800     		.short	8
 1734 0014 00000000 		.word	playerExplosionPixMap_1
 1735              		.text
 1736              	.Letext0:
DEFINED SYMBOLS
                            *ABS*:00000000 player.c
C:\Users\Mendi\AppData\Local\Temp\ccBdzAA8.s:1370   .text:00000000 $a
C:\Users\Mendi\AppData\Local\Temp\ccBdzAA8.s:1373   .text:00000000 player_init
C:\Users\Mendi\AppData\Local\Temp\ccBdzAA8.s:1447   .text:000000b8 $d
C:\Users\Mendi\AppData\Local\Temp\ccBdzAA8.s:1717   .rodata:00000000 C.0.4948
C:\Users\Mendi\AppData\Local\Temp\ccBdzAA8.s:1724   .rodata:00000008 C.1.4949
C:\Users\Mendi\AppData\Local\Temp\ccBdzAA8.s:1731   .rodata:00000010 C.2.4950
C:\Users\Mendi\AppData\Local\Temp\ccBdzAA8.s:1454   .text:000000c8 $a
C:\Users\Mendi\AppData\Local\Temp\ccBdzAA8.s:1456   .text:000000c8 player_draw
C:\Users\Mendi\AppData\Local\Temp\ccBdzAA8.s:1484   .text:000000e8 player_clear
C:\Users\Mendi\AppData\Local\Temp\ccBdzAA8.s:1513   .text:00000108 player_launch
C:\Users\Mendi\AppData\Local\Temp\ccBdzAA8.s:1542   .text:00000128 player_update
C:\Users\Mendi\AppData\Local\Temp\ccBdzAA8.s:1571   .text:00000148 player_left
C:\Users\Mendi\AppData\Local\Temp\ccBdzAA8.s:1600   .text:00000168 player_right
C:\Users\Mendi\AppData\Local\Temp\ccBdzAA8.s:1629   .text:00000188 player_stop
C:\Users\Mendi\AppData\Local\Temp\ccBdzAA8.s:1658   .text:000001a8 player_hit
C:\Users\Mendi\AppData\Local\Temp\ccBdzAA8.s:1687   .text:000001c8 player_invaded
C:\Users\Mendi\AppData\Local\Temp\ccBdzAA8.s:1714   .rodata:00000000 $d
                     .debug_frame:00000010 $d

UNDEFINED SYMBOLS
lives_init
score_init
playerPixMap
playerExplosionPixMap_0
playerExplosionPixMap_1
