   1              		.cpu arm7tdmi
   2              		.fpu softvfp
   3              		.eabi_attribute 20, 1
   4              		.eabi_attribute 21, 1
   5              		.eabi_attribute 23, 3
   6              		.eabi_attribute 24, 1
   7              		.eabi_attribute 25, 1
   8              		.eabi_attribute 26, 1
   9              		.eabi_attribute 30, 6
  10              		.eabi_attribute 18, 4
  11              		.file	"proyecto.c"
  21              	.Ltext0:
  22              		.file 1 "../proyecto.c"
 2521              		.align	2
 2522              		.global	main
 2524              	main:
 2525              	.LFB0:
   1:../proyecto.c **** #include <s3c44b0x.h>
   2:../proyecto.c **** #include <s3cev40.h>
   3:../proyecto.c **** #include <common_types.h>
   4:../proyecto.c **** #include <system.h>
   5:../proyecto.c **** #include <segs.h>
   6:../proyecto.c **** #include <pbs.h>
   7:../proyecto.c **** #include <keypad.h>
   8:../proyecto.c **** #include <timers.h>
   9:../proyecto.c **** #include <lcd.h>
  10:../proyecto.c **** #include <iic.h>
  11:../proyecto.c **** #include <uda1341ts.h>
  12:../proyecto.c **** #include <iis.h>
  13:../proyecto.c **** 
  14:../proyecto.c **** #include "config.h"
  15:../proyecto.c **** #include "random.h"
  16:../proyecto.c **** #include "pixmaps.h"
  17:../proyecto.c **** #include "game.h"
  18:../proyecto.c **** #include "player.h"
  19:../proyecto.c **** #include "playerShot.h"
  20:../proyecto.c **** 
  21:../proyecto.c **** #include "kernelcoop.h"
  22:../proyecto.c **** 
  23:../proyecto.c **** /////////////////////////////////////////////////////////////////////////////
  24:../proyecto.c **** // Declaración de tareas
  25:../proyecto.c **** /////////////////////////////////////////////////////////////////////////////
  26:../proyecto.c **** 
  27:../proyecto.c **** void player_update_task( void );
  28:../proyecto.c **** void playerShot_update_task( void );
  29:../proyecto.c **** void swarm_update_task( void );
  30:../proyecto.c **** void enemyShot_launch_task( void );
  31:../proyecto.c **** void enemyShot_update_task( void );
  32:../proyecto.c **** void ufo_launch_task( void );
  33:../proyecto.c **** void ufo_update_task( void );
  34:../proyecto.c **** void keys_read_task( void );
  35:../proyecto.c **** void pbs_read_task( void );
  36:../proyecto.c **** 
  37:../proyecto.c **** /////////////////////////////////////////////////////////////////////////////
  38:../proyecto.c **** // Declaración de otras funciones
  39:../proyecto.c **** /////////////////////////////////////////////////////////////////////////////
  40:../proyecto.c **** 
  41:../proyecto.c **** void wellcomeScreen_draw( void );
  42:../proyecto.c **** void gameOverScreen_draw( void );
  43:../proyecto.c **** 
  44:../proyecto.c **** Game game;
  45:../proyecto.c **** 
  46:../proyecto.c **** void main( void )
  47:../proyecto.c **** {
 2526              		.loc 1 47 0
 2527              		.cfi_startproc
 2528              		@ Function supports interworking.
 2529              		@ args = 0, pretend = 0, frame = 0
 2530              		@ frame_needed = 1, uses_anonymous_args = 0
 2531 0000 0DC0A0E1 		mov	ip, sp
 2532              	.LCFI0:
 2533              		.cfi_def_cfa_register 12
 2534 0004 00D82DE9 		stmfd	sp!, {fp, ip, lr, pc}
 2535 0008 04B04CE2 		sub	fp, ip, #4
 2536              		.cfi_offset 14, -8
 2537              		.cfi_offset 13, -12
 2538              		.cfi_offset 11, -16
 2539              	.LCFI1:
 2540              		.cfi_def_cfa 11, 4
  48:../proyecto.c ****     
  49:../proyecto.c ****     sys_init();                   /* Inicializa el sistema */
 2541              		.loc 1 49 0
 2542 000c FEFFFFEB 		bl	sys_init
  50:../proyecto.c ****     segs_init();
 2543              		.loc 1 50 0
 2544 0010 FEFFFFEB 		bl	segs_init
  51:../proyecto.c ****     timers_init();
 2545              		.loc 1 51 0
 2546 0014 FEFFFFEB 		bl	timers_init
  52:../proyecto.c ****     keypad_init(); 
 2547              		.loc 1 52 0
 2548 0018 FEFFFFEB 		bl	keypad_init
  53:../proyecto.c ****     pbs_init();
 2549              		.loc 1 53 0
 2550 001c FEFFFFEB 		bl	pbs_init
  54:../proyecto.c ****     lcd_init();
 2551              		.loc 1 54 0
 2552 0020 FEFFFFEB 		bl	lcd_init
  55:../proyecto.c ****     iic_init();
 2553              		.loc 1 55 0
 2554 0024 FEFFFFEB 		bl	iic_init
  56:../proyecto.c ****     uda1341ts_init();
 2555              		.loc 1 56 0
 2556 0028 FEFFFFEB 		bl	uda1341ts_init
  57:../proyecto.c ****     iis_init( IIS_DMA );
 2557              		.loc 1 57 0
 2558 002c 0100A0E3 		mov	r0, #1
 2559 0030 FEFFFFEB 		bl	iis_init
  58:../proyecto.c ****     
  59:../proyecto.c ****     lcd_on();
 2560              		.loc 1 59 0
 2561 0034 FEFFFFEB 		bl	lcd_on
  60:../proyecto.c **** 
  61:../proyecto.c ****     random_init( (BCDSEC << 16) | (BCDMIN << 8) | BCDHOUR );    /* Semilla el generador de numeros 
 2562              		.loc 1 61 0
 2563 0038 88309FE5 		ldr	r3, .L5
 2564 003c 003093E5 		ldr	r3, [r3, #0]
 2565 0040 0328A0E1 		mov	r2, r3, asl #16
 2566 0044 80309FE5 		ldr	r3, .L5+4
 2567 0048 003093E5 		ldr	r3, [r3, #0]
 2568 004c 0334A0E1 		mov	r3, r3, asl #8
 2569 0050 032082E1 		orr	r2, r2, r3
 2570 0054 74309FE5 		ldr	r3, .L5+8
 2571 0058 003093E5 		ldr	r3, [r3, #0]
 2572 005c 033082E1 		orr	r3, r2, r3
 2573 0060 0300A0E1 		mov	r0, r3
 2574 0064 FEFFFFEB 		bl	random_init
  62:../proyecto.c ****     game_init( &game );                                         /* Inicializa el juego */
 2575              		.loc 1 62 0
 2576 0068 64009FE5 		ldr	r0, .L5+12
 2577 006c FEFFFFEB 		bl	game_init
  63:../proyecto.c **** 
  64:../proyecto.c ****     scheduler_init();                                           /* Inicializa el kernel */
 2578              		.loc 1 64 0
 2579 0070 FEFFFFEB 		bl	scheduler_init
  65:../proyecto.c ****     create_task( pbs_read_task, PBS_READ_PERIOD/TICK_PERIOD );  /* Crea las tareas de la aplicación
 2580              		.loc 1 65 0
 2581 0074 5C009FE5 		ldr	r0, .L5+16
 2582 0078 0310A0E3 		mov	r1, #3
 2583 007c FEFFFFEB 		bl	create_task
 2584              	.L4:
  66:../proyecto.c ****     /* no olvidar crear resto de tareas */
  67:../proyecto.c **** 
  68:../proyecto.c ****     while( 1 )
  69:../proyecto.c ****     {
  70:../proyecto.c ****         wellcomeScreen_draw();
 2585              		.loc 1 70 0
 2586 0080 FEFFFFEB 		bl	wellcomeScreen_draw
  71:../proyecto.c ****         game_launch( &game );                                    /* Lanza el juego */
 2587              		.loc 1 71 0
 2588 0084 48009FE5 		ldr	r0, .L5+12
 2589 0088 FEFFFFEB 		bl	game_launch
  72:../proyecto.c **** 
  73:../proyecto.c ****         timer0_open_tick( scheduler, TICKS_PER_SEC );            /* Arranca multitarea */
 2590              		.loc 1 73 0
 2591 008c 48009FE5 		ldr	r0, .L5+20
 2592 0090 6410A0E3 		mov	r1, #100
 2593 0094 FEFFFFEB 		bl	timer0_open_tick
  74:../proyecto.c ****         while( game.credit.value < 3 )
 2594              		.loc 1 74 0
 2595 0098 000000EA 		b	.L2
 2596              	.L3:
  75:../proyecto.c ****         {
  76:../proyecto.c ****             /* sleep(); */  // descomentar cuando funcione
  77:../proyecto.c ****             dispacher();
 2597              		.loc 1 77 0
 2598 009c FEFFFFEB 		bl	dispacher
 2599              	.L2:
  74:../proyecto.c ****         while( game.credit.value < 3 )
 2600              		.loc 1 74 0 discriminator 1
 2601 00a0 2C209FE5 		ldr	r2, .L5+12
 2602 00a4 34309FE5 		ldr	r3, .L5+24
 2603 00a8 B33092E1 		ldrh	r3, [r2, r3]
 2604 00ac 020053E3 		cmp	r3, #2
 2605 00b0 F9FFFF9A 		bls	.L3
  78:../proyecto.c ****         }
  79:../proyecto.c ****         timer0_close();                                          /* Para multitarea */
 2606              		.loc 1 79 0
 2607 00b4 FEFFFFEB 		bl	timer0_close
  80:../proyecto.c ****             
  81:../proyecto.c ****         gameOverScreen_draw();
 2608              		.loc 1 81 0
 2609 00b8 FEFFFFEB 		bl	gameOverScreen_draw
  82:../proyecto.c ****            game_restart( &game );
 2610              		.loc 1 82 0
 2611 00bc 10009FE5 		ldr	r0, .L5+12
 2612 00c0 FEFFFFEB 		bl	game_restart
  83:../proyecto.c ****     }  
 2613              		.loc 1 83 0
 2614 00c4 EDFFFFEA 		b	.L4
 2615              	.L6:
 2616              		.align	2
 2617              	.L5:
 2618 00c8 7000D701 		.word	30867568
 2619 00cc 7400D701 		.word	30867572
 2620 00d0 7800D701 		.word	30867576
 2621 00d4 00000000 		.word	game
 2622 00d8 00000000 		.word	pbs_read_task
 2623 00dc 00000000 		.word	scheduler
 2624 00e0 CA040000 		.word	1226
 2625              		.cfi_endproc
 2626              	.LFE0:
 2628              		.align	2
 2629              		.global	player_update_task
 2631              	player_update_task:
 2632              	.LFB1:
  84:../proyecto.c **** }
  85:../proyecto.c **** 
  86:../proyecto.c **** void player_update_task( void )
  87:../proyecto.c **** {
 2633              		.loc 1 87 0
 2634              		.cfi_startproc
 2635              		@ Function supports interworking.
 2636              		@ args = 0, pretend = 0, frame = 0
 2637              		@ frame_needed = 1, uses_anonymous_args = 0
 2638 00e4 0DC0A0E1 		mov	ip, sp
 2639              	.LCFI2:
 2640              		.cfi_def_cfa_register 12
 2641 00e8 00D82DE9 		stmfd	sp!, {fp, ip, lr, pc}
 2642 00ec 04B04CE2 		sub	fp, ip, #4
 2643              		.cfi_offset 14, -8
 2644              		.cfi_offset 13, -12
 2645              		.cfi_offset 11, -16
 2646              	.LCFI3:
 2647              		.cfi_def_cfa 11, 4
  88:../proyecto.c **** }
 2648              		.loc 1 88 0
 2649 00f0 0CD04BE2 		sub	sp, fp, #12
 2650 00f4 00689DE8 		ldmfd	sp, {fp, sp, lr}
 2651 00f8 1EFF2FE1 		bx	lr
 2652              		.cfi_endproc
 2653              	.LFE1:
 2655              		.align	2
 2656              		.global	ufo_launch_task
 2658              	ufo_launch_task:
 2659              	.LFB2:
  89:../proyecto.c **** 
  90:../proyecto.c **** void ufo_launch_task( void )
  91:../proyecto.c **** {   
 2660              		.loc 1 91 0
 2661              		.cfi_startproc
 2662              		@ Function supports interworking.
 2663              		@ args = 0, pretend = 0, frame = 0
 2664              		@ frame_needed = 1, uses_anonymous_args = 0
 2665 00fc 0DC0A0E1 		mov	ip, sp
 2666              	.LCFI4:
 2667              		.cfi_def_cfa_register 12
 2668 0100 00D82DE9 		stmfd	sp!, {fp, ip, lr, pc}
 2669 0104 04B04CE2 		sub	fp, ip, #4
 2670              		.cfi_offset 14, -8
 2671              		.cfi_offset 13, -12
 2672              		.cfi_offset 11, -16
 2673              	.LCFI5:
 2674              		.cfi_def_cfa 11, 4
  92:../proyecto.c ****     if( random_get() & 0x1 )                                      /* Lanza UFOs con probabilidad de
 2675              		.loc 1 92 0
 2676 0108 FEFFFFEB 		bl	random_get
 2677 010c 0030A0E1 		mov	r3, r0
 2678 0110 013003E2 		and	r3, r3, #1
 2679 0114 FF3003E2 		and	r3, r3, #255
 2680 0118 000053E3 		cmp	r3, #0
 2681 011c 0100000A 		beq	.L8
  93:../proyecto.c ****         ufo_launch( &game.ufo );
 2682              		.loc 1 93 0
 2683 0120 0C009FE5 		ldr	r0, .L10
 2684 0124 FEFFFFEB 		bl	ufo_launch
 2685              	.L8:
  94:../proyecto.c **** }
 2686              		.loc 1 94 0
 2687 0128 0CD04BE2 		sub	sp, fp, #12
 2688 012c 00689DE8 		ldmfd	sp, {fp, sp, lr}
 2689 0130 1EFF2FE1 		bx	lr
 2690              	.L11:
 2691              		.align	2
 2692              	.L10:
 2693 0134 A4040000 		.word	game+1188
 2694              		.cfi_endproc
 2695              	.LFE2:
 2697              		.align	2
 2698              		.global	ufo_update_task
 2700              	ufo_update_task:
 2701              	.LFB3:
  95:../proyecto.c **** 
  96:../proyecto.c **** void ufo_update_task( void )
  97:../proyecto.c **** {
 2702              		.loc 1 97 0
 2703              		.cfi_startproc
 2704              		@ Function supports interworking.
 2705              		@ args = 0, pretend = 0, frame = 0
 2706              		@ frame_needed = 1, uses_anonymous_args = 0
 2707 0138 0DC0A0E1 		mov	ip, sp
 2708              	.LCFI6:
 2709              		.cfi_def_cfa_register 12
 2710 013c 00D82DE9 		stmfd	sp!, {fp, ip, lr, pc}
 2711 0140 04B04CE2 		sub	fp, ip, #4
 2712              		.cfi_offset 14, -8
 2713              		.cfi_offset 13, -12
 2714              		.cfi_offset 11, -16
 2715              	.LCFI7:
 2716              		.cfi_def_cfa 11, 4
  98:../proyecto.c ****     ufo_update( &game.ufo );
 2717              		.loc 1 98 0
 2718 0144 0C009FE5 		ldr	r0, .L13
 2719 0148 FEFFFFEB 		bl	ufo_update
  99:../proyecto.c **** }
 2720              		.loc 1 99 0
 2721 014c 0CD04BE2 		sub	sp, fp, #12
 2722 0150 00689DE8 		ldmfd	sp, {fp, sp, lr}
 2723 0154 1EFF2FE1 		bx	lr
 2724              	.L14:
 2725              		.align	2
 2726              	.L13:
 2727 0158 A4040000 		.word	game+1188
 2728              		.cfi_endproc
 2729              	.LFE3:
 2731              		.align	2
 2732              		.global	playerShot_update_task
 2734              	playerShot_update_task:
 2735              	.LFB4:
 100:../proyecto.c **** 
 101:../proyecto.c **** void playerShot_update_task( void )
 102:../proyecto.c **** {   
 2736              		.loc 1 102 0
 2737              		.cfi_startproc
 2738              		@ Function supports interworking.
 2739              		@ args = 0, pretend = 0, frame = 0
 2740              		@ frame_needed = 1, uses_anonymous_args = 0
 2741 015c 0DC0A0E1 		mov	ip, sp
 2742              	.LCFI8:
 2743              		.cfi_def_cfa_register 12
 2744 0160 00D82DE9 		stmfd	sp!, {fp, ip, lr, pc}
 2745 0164 04B04CE2 		sub	fp, ip, #4
 2746              		.cfi_offset 14, -8
 2747              		.cfi_offset 13, -12
 2748              		.cfi_offset 11, -16
 2749              	.LCFI9:
 2750              		.cfi_def_cfa 11, 4
 103:../proyecto.c **** }
 2751              		.loc 1 103 0
 2752 0168 0CD04BE2 		sub	sp, fp, #12
 2753 016c 00689DE8 		ldmfd	sp, {fp, sp, lr}
 2754 0170 1EFF2FE1 		bx	lr
 2755              		.cfi_endproc
 2756              	.LFE4:
 2758              		.align	2
 2759              		.global	swarm_update_task
 2761              	swarm_update_task:
 2762              	.LFB5:
 104:../proyecto.c **** 
 105:../proyecto.c **** void swarm_update_task( void )
 106:../proyecto.c **** {
 2763              		.loc 1 106 0
 2764              		.cfi_startproc
 2765              		@ Function supports interworking.
 2766              		@ args = 0, pretend = 0, frame = 0
 2767              		@ frame_needed = 1, uses_anonymous_args = 0
 2768 0174 0DC0A0E1 		mov	ip, sp
 2769              	.LCFI10:
 2770              		.cfi_def_cfa_register 12
 2771 0178 00D82DE9 		stmfd	sp!, {fp, ip, lr, pc}
 2772 017c 04B04CE2 		sub	fp, ip, #4
 2773              		.cfi_offset 14, -8
 2774              		.cfi_offset 13, -12
 2775              		.cfi_offset 11, -16
 2776              	.LCFI11:
 2777              		.cfi_def_cfa 11, 4
 107:../proyecto.c **** }
 2778              		.loc 1 107 0
 2779 0180 0CD04BE2 		sub	sp, fp, #12
 2780 0184 00689DE8 		ldmfd	sp, {fp, sp, lr}
 2781 0188 1EFF2FE1 		bx	lr
 2782              		.cfi_endproc
 2783              	.LFE5:
 2785              		.align	2
 2786              		.global	enemyShot_update_task
 2788              	enemyShot_update_task:
 2789              	.LFB6:
 108:../proyecto.c **** 
 109:../proyecto.c **** void enemyShot_update_task( void )
 110:../proyecto.c **** {
 2790              		.loc 1 110 0
 2791              		.cfi_startproc
 2792              		@ Function supports interworking.
 2793              		@ args = 0, pretend = 0, frame = 0
 2794              		@ frame_needed = 1, uses_anonymous_args = 0
 2795 018c 0DC0A0E1 		mov	ip, sp
 2796              	.LCFI12:
 2797              		.cfi_def_cfa_register 12
 2798 0190 00D82DE9 		stmfd	sp!, {fp, ip, lr, pc}
 2799 0194 04B04CE2 		sub	fp, ip, #4
 2800              		.cfi_offset 14, -8
 2801              		.cfi_offset 13, -12
 2802              		.cfi_offset 11, -16
 2803              	.LCFI13:
 2804              		.cfi_def_cfa 11, 4
 111:../proyecto.c **** }
 2805              		.loc 1 111 0
 2806 0198 0CD04BE2 		sub	sp, fp, #12
 2807 019c 00689DE8 		ldmfd	sp, {fp, sp, lr}
 2808 01a0 1EFF2FE1 		bx	lr
 2809              		.cfi_endproc
 2810              	.LFE6:
 2812              		.align	2
 2813              		.global	enemyShot_launch_task
 2815              	enemyShot_launch_task:
 2816              	.LFB7:
 112:../proyecto.c **** 
 113:../proyecto.c **** void enemyShot_launch_task( void )
 114:../proyecto.c **** {
 2817              		.loc 1 114 0
 2818              		.cfi_startproc
 2819              		@ Function supports interworking.
 2820              		@ args = 0, pretend = 0, frame = 0
 2821              		@ frame_needed = 1, uses_anonymous_args = 0
 2822 01a4 0DC0A0E1 		mov	ip, sp
 2823              	.LCFI14:
 2824              		.cfi_def_cfa_register 12
 2825 01a8 00D82DE9 		stmfd	sp!, {fp, ip, lr, pc}
 2826 01ac 04B04CE2 		sub	fp, ip, #4
 2827              		.cfi_offset 14, -8
 2828              		.cfi_offset 13, -12
 2829              		.cfi_offset 11, -16
 2830              	.LCFI15:
 2831              		.cfi_def_cfa 11, 4
 115:../proyecto.c **** }
 2832              		.loc 1 115 0
 2833 01b0 0CD04BE2 		sub	sp, fp, #12
 2834 01b4 00689DE8 		ldmfd	sp, {fp, sp, lr}
 2835 01b8 1EFF2FE1 		bx	lr
 2836              		.cfi_endproc
 2837              	.LFE7:
 2839              		.align	2
 2840              		.global	keys_read_task
 2842              	keys_read_task:
 2843              	.LFB8:
 116:../proyecto.c **** 
 117:../proyecto.c **** void keys_read_task( void )
 118:../proyecto.c **** {
 2844              		.loc 1 118 0
 2845              		.cfi_startproc
 2846              		@ Function supports interworking.
 2847              		@ args = 0, pretend = 0, frame = 0
 2848              		@ frame_needed = 1, uses_anonymous_args = 0
 2849 01bc 0DC0A0E1 		mov	ip, sp
 2850              	.LCFI16:
 2851              		.cfi_def_cfa_register 12
 2852 01c0 00D82DE9 		stmfd	sp!, {fp, ip, lr, pc}
 2853 01c4 04B04CE2 		sub	fp, ip, #4
 2854              		.cfi_offset 14, -8
 2855              		.cfi_offset 13, -12
 2856              		.cfi_offset 11, -16
 2857              	.LCFI17:
 2858              		.cfi_def_cfa 11, 4
 119:../proyecto.c **** }
 2859              		.loc 1 119 0
 2860 01c8 0CD04BE2 		sub	sp, fp, #12
 2861 01cc 00689DE8 		ldmfd	sp, {fp, sp, lr}
 2862 01d0 1EFF2FE1 		bx	lr
 2863              		.cfi_endproc
 2864              	.LFE8:
 2866              		.align	2
 2867              		.global	pbs_read_task
 2869              	pbs_read_task:
 2870              	.LFB9:
 120:../proyecto.c **** 
 121:../proyecto.c **** void pbs_read_task( void )
 122:../proyecto.c **** {
 2871              		.loc 1 122 0
 2872              		.cfi_startproc
 2873              		@ Function supports interworking.
 2874              		@ args = 0, pretend = 0, frame = 0
 2875              		@ frame_needed = 1, uses_anonymous_args = 0
 2876 01d4 0DC0A0E1 		mov	ip, sp
 2877              	.LCFI18:
 2878              		.cfi_def_cfa_register 12
 2879 01d8 00D82DE9 		stmfd	sp!, {fp, ip, lr, pc}
 2880 01dc 04B04CE2 		sub	fp, ip, #4
 2881              		.cfi_offset 14, -8
 2882              		.cfi_offset 13, -12
 2883              		.cfi_offset 11, -16
 2884              	.LCFI19:
 2885              		.cfi_def_cfa 11, 4
 123:../proyecto.c ****     static boolean init = TRUE;
 124:../proyecto.c ****     static enum { wait_keydown, scan, wait_keyup } state;
 125:../proyecto.c **** 
 126:../proyecto.c ****     if( init )
 2886              		.loc 1 126 0
 2887 01e0 E4309FE5 		ldr	r3, .L34
 2888 01e4 0030D3E5 		ldrb	r3, [r3, #0]	@ zero_extendqisi2
 2889 01e8 000053E3 		cmp	r3, #0
 2890 01ec 0600000A 		beq	.L21
 127:../proyecto.c ****     {
 128:../proyecto.c ****         init  = FALSE;
 2891              		.loc 1 128 0
 2892 01f0 D4309FE5 		ldr	r3, .L34
 2893 01f4 0020A0E3 		mov	r2, #0
 2894 01f8 0020C3E5 		strb	r2, [r3, #0]
 129:../proyecto.c ****         state = wait_keydown;
 2895              		.loc 1 129 0
 2896 01fc CC309FE5 		ldr	r3, .L34+4
 2897 0200 0020A0E3 		mov	r2, #0
 2898 0204 0020C3E5 		strb	r2, [r3, #0]
 2899 0208 2C0000EA 		b	.L20
 2900              	.L21:
 130:../proyecto.c ****     }
 131:../proyecto.c ****     else switch( state )
 2901              		.loc 1 131 0
 2902 020c BC309FE5 		ldr	r3, .L34+4
 2903 0210 0030D3E5 		ldrb	r3, [r3, #0]	@ zero_extendqisi2
 2904 0214 010053E3 		cmp	r3, #1
 2905 0218 0B00000A 		beq	.L24
 2906 021c 020053E3 		cmp	r3, #2
 2907 0220 1B00000A 		beq	.L25
 2908 0224 000053E3 		cmp	r3, #0
 2909 0228 2400001A 		bne	.L20
 2910              	.L23:
 132:../proyecto.c ****     {
 133:../proyecto.c ****         case wait_keydown:
 134:../proyecto.c ****             if( pb_pressed() )
 2911              		.loc 1 134 0
 2912 022c FEFFFFEB 		bl	pb_pressed
 2913 0230 0030A0E1 		mov	r3, r0
 2914 0234 000053E3 		cmp	r3, #0
 2915 0238 1D00000A 		beq	.L32
 135:../proyecto.c ****                 state = scan;
 2916              		.loc 1 135 0
 2917 023c 8C309FE5 		ldr	r3, .L34+4
 2918 0240 0120A0E3 		mov	r2, #1
 2919 0244 0020C3E5 		strb	r2, [r3, #0]
 136:../proyecto.c ****             break;
 2920              		.loc 1 136 0
 2921 0248 1C0000EA 		b	.L20
 2922              	.L24:
 137:../proyecto.c ****         case scan:
 138:../proyecto.c ****             switch( pb_scan() )
 2923              		.loc 1 138 0
 2924 024c FEFFFFEB 		bl	pb_scan
 2925 0250 0030A0E1 		mov	r3, r0
 2926 0254 400053E3 		cmp	r3, #64
 2927 0258 0100000A 		beq	.L28
 2928 025c 800053E3 		cmp	r3, #128
 2929 0260 0700001A 		bne	.L31
 2930              	.L28:
 139:../proyecto.c ****             {
 140:../proyecto.c ****                 case PB_RIGHT:
 141:../proyecto.c ****                 case PB_LEFT:
 142:../proyecto.c ****                     credit_update( &game.credit, 1 );
 2931              		.loc 1 142 0
 2932 0264 68009FE5 		ldr	r0, .L34+8
 2933 0268 0110A0E3 		mov	r1, #1
 2934 026c FEFFFFEB 		bl	credit_update
 143:../proyecto.c ****                     state = wait_keyup;
 2935              		.loc 1 143 0
 2936 0270 58309FE5 		ldr	r3, .L34+4
 2937 0274 0220A0E3 		mov	r2, #2
 2938 0278 0020C3E5 		strb	r2, [r3, #0]
 144:../proyecto.c ****                     break;
 2939              		.loc 1 144 0
 2940 027c 0000A0E1 		mov	r0, r0	@ nop
 145:../proyecto.c ****                 default:
 146:../proyecto.c ****                     state = wait_keyup;
 147:../proyecto.c ****             }
 148:../proyecto.c ****             break;
 2941              		.loc 1 148 0
 2942 0280 0E0000EA 		b	.L20
 2943              	.L31:
 146:../proyecto.c ****                     state = wait_keyup;
 2944              		.loc 1 146 0
 2945 0284 44309FE5 		ldr	r3, .L34+4
 2946 0288 0220A0E3 		mov	r2, #2
 2947 028c 0020C3E5 		strb	r2, [r3, #0]
 2948              		.loc 1 148 0
 2949 0290 0A0000EA 		b	.L20
 2950              	.L25:
 149:../proyecto.c ****         case wait_keyup:
 150:../proyecto.c ****             if( !pb_pressed() )
 2951              		.loc 1 150 0
 2952 0294 FEFFFFEB 		bl	pb_pressed
 2953 0298 0030A0E1 		mov	r3, r0
 2954 029c 000053E3 		cmp	r3, #0
 2955 02a0 0500001A 		bne	.L33
 151:../proyecto.c ****                 state = wait_keydown;
 2956              		.loc 1 151 0
 2957 02a4 24309FE5 		ldr	r3, .L34+4
 2958 02a8 0020A0E3 		mov	r2, #0
 2959 02ac 0020C3E5 		strb	r2, [r3, #0]
 152:../proyecto.c ****             break;
 2960              		.loc 1 152 0
 2961 02b0 020000EA 		b	.L20
 2962              	.L32:
 136:../proyecto.c ****             break;
 2963              		.loc 1 136 0
 2964 02b4 0000A0E1 		mov	r0, r0	@ nop
 2965 02b8 000000EA 		b	.L20
 2966              	.L33:
 2967              		.loc 1 152 0
 2968 02bc 0000A0E1 		mov	r0, r0	@ nop
 2969              	.L20:
 153:../proyecto.c ****     }
 154:../proyecto.c **** }
 2970              		.loc 1 154 0
 2971 02c0 0CD04BE2 		sub	sp, fp, #12
 2972 02c4 00689DE8 		ldmfd	sp, {fp, sp, lr}
 2973 02c8 1EFF2FE1 		bx	lr
 2974              	.L35:
 2975              		.align	2
 2976              	.L34:
 2977 02cc 00000000 		.word	init.4543
 2978 02d0 00000000 		.word	state.4548
 2979 02d4 CA040000 		.word	game+1226
 2980              		.cfi_endproc
 2981              	.LFE9:
 2983              		.section	.rodata
 2984              		.align	2
 2985              	.LC0:
 2986 0000 44454D4F 		.ascii	"DEMO DEMO DEMO\000"
 2986      2044454D 
 2986      4F204445 
 2986      4D4F00
 2987 000f 00       		.align	2
 2988              	.LC1:
 2989 0010 456C206A 		.ascii	"El juego consiste en pulsar\000"
 2989      7565676F 
 2989      20636F6E 
 2989      73697374 
 2989      6520656E 
 2990              		.align	2
 2991              	.LC2:
 2992 002c 33207665 		.ascii	"3 veces un pulsador\000"
 2992      63657320 
 2992      756E2070 
 2992      756C7361 
 2992      646F7200 
 2993              		.align	2
 2994              	.LC3:
 2995 0040 50617261 		.ascii	"Para comenzar pulse cualquier tecla\000"
 2995      20636F6D 
 2995      656E7A61 
 2995      72207075 
 2995      6C736520 
 2996              		.text
 2997              		.align	2
 2998              		.global	wellcomeScreen_draw
 3000              	wellcomeScreen_draw:
 3001              	.LFB10:
 155:../proyecto.c **** 
 156:../proyecto.c **** /*******************************************************************/
 157:../proyecto.c **** 
 158:../proyecto.c **** 
 159:../proyecto.c **** void wellcomeScreen_draw( void )
 160:../proyecto.c **** {
 3002              		.loc 1 160 0
 3003              		.cfi_startproc
 3004              		@ Function supports interworking.
 3005              		@ args = 0, pretend = 0, frame = 0
 3006              		@ frame_needed = 1, uses_anonymous_args = 0
 3007 02d8 0DC0A0E1 		mov	ip, sp
 3008              	.LCFI20:
 3009              		.cfi_def_cfa_register 12
 3010 02dc 00D82DE9 		stmfd	sp!, {fp, ip, lr, pc}
 3011 02e0 04B04CE2 		sub	fp, ip, #4
 3012              		.cfi_offset 14, -8
 3013              		.cfi_offset 13, -12
 3014              		.cfi_offset 11, -16
 3015              	.LCFI21:
 3016              		.cfi_def_cfa 11, 4
 161:../proyecto.c ****     lcd_clear();
 3017              		.loc 1 161 0
 3018 02e4 FEFFFFEB 		bl	lcd_clear
 162:../proyecto.c ****     lcd_puts_x2( 48, 16, BLACK, "DEMO DEMO DEMO" );
 3019              		.loc 1 162 0
 3020 02e8 3000A0E3 		mov	r0, #48
 3021 02ec 1010A0E3 		mov	r1, #16
 3022 02f0 0F20A0E3 		mov	r2, #15
 3023 02f4 50309FE5 		ldr	r3, .L37
 3024 02f8 FEFFFFEB 		bl	lcd_puts_x2
 163:../proyecto.c ****     lcd_puts( 48, 64, BLACK, "El juego consiste en pulsar" );
 3025              		.loc 1 163 0
 3026 02fc 3000A0E3 		mov	r0, #48
 3027 0300 4010A0E3 		mov	r1, #64
 3028 0304 0F20A0E3 		mov	r2, #15
 3029 0308 40309FE5 		ldr	r3, .L37+4
 3030 030c FEFFFFEB 		bl	lcd_puts
 164:../proyecto.c ****     lcd_puts( 80, 80, BLACK, "3 veces un pulsador" );
 3031              		.loc 1 164 0
 3032 0310 5000A0E3 		mov	r0, #80
 3033 0314 5010A0E3 		mov	r1, #80
 3034 0318 0F20A0E3 		mov	r2, #15
 3035 031c 30309FE5 		ldr	r3, .L37+8
 3036 0320 FEFFFFEB 		bl	lcd_puts
 165:../proyecto.c **** 
 166:../proyecto.c ****     lcd_puts( 20, 192, BLACK, "Para comenzar pulse cualquier tecla" );
 3037              		.loc 1 166 0
 3038 0324 1400A0E3 		mov	r0, #20
 3039 0328 C010A0E3 		mov	r1, #192
 3040 032c 0F20A0E3 		mov	r2, #15
 3041 0330 20309FE5 		ldr	r3, .L37+12
 3042 0334 FEFFFFEB 		bl	lcd_puts
 167:../proyecto.c **** 
 168:../proyecto.c ****     keypad_getchar();
 3043              		.loc 1 168 0
 3044 0338 FEFFFFEB 		bl	keypad_getchar
 169:../proyecto.c ****     lcd_clear();
 3045              		.loc 1 169 0
 3046 033c FEFFFFEB 		bl	lcd_clear
 170:../proyecto.c **** }
 3047              		.loc 1 170 0
 3048 0340 0CD04BE2 		sub	sp, fp, #12
 3049 0344 00689DE8 		ldmfd	sp, {fp, sp, lr}
 3050 0348 1EFF2FE1 		bx	lr
 3051              	.L38:
 3052              		.align	2
 3053              	.L37:
 3054 034c 00000000 		.word	.LC0
 3055 0350 10000000 		.word	.LC1
 3056 0354 2C000000 		.word	.LC2
 3057 0358 40000000 		.word	.LC3
 3058              		.cfi_endproc
 3059              	.LFE10:
 3061              		.section	.rodata
 3062              		.align	2
 3063              	.LC4:
 3064 0064 48612070 		.ascii	"Ha presionado 3 veces un pulsador\000"
 3064      72657369 
 3064      6F6E6164 
 3064      6F203320 
 3064      76656365 
 3065 0086 0000     		.align	2
 3066              	.LC5:
 3067 0088 50617261 		.ascii	"Para continuar pulse cualquier tecla\000"
 3067      20636F6E 
 3067      74696E75 
 3067      61722070 
 3067      756C7365 
 3068 00ad 000000   		.text
 3069              		.align	2
 3070              		.global	gameOverScreen_draw
 3072              	gameOverScreen_draw:
 3073              	.LFB11:
 171:../proyecto.c **** 
 172:../proyecto.c **** void gameOverScreen_draw( void )
 173:../proyecto.c **** {
 3074              		.loc 1 173 0
 3075              		.cfi_startproc
 3076              		@ Function supports interworking.
 3077              		@ args = 0, pretend = 0, frame = 0
 3078              		@ frame_needed = 1, uses_anonymous_args = 0
 3079 035c 0DC0A0E1 		mov	ip, sp
 3080              	.LCFI22:
 3081              		.cfi_def_cfa_register 12
 3082 0360 00D82DE9 		stmfd	sp!, {fp, ip, lr, pc}
 3083 0364 04B04CE2 		sub	fp, ip, #4
 3084              		.cfi_offset 14, -8
 3085              		.cfi_offset 13, -12
 3086              		.cfi_offset 11, -16
 3087              	.LCFI23:
 3088              		.cfi_def_cfa 11, 4
 174:../proyecto.c ****     lcd_clear();
 3089              		.loc 1 174 0
 3090 0368 FEFFFFEB 		bl	lcd_clear
 175:../proyecto.c ****     lcd_puts( 36,  80, BLACK, "Ha presionado 3 veces un pulsador" );
 3091              		.loc 1 175 0
 3092 036c 2400A0E3 		mov	r0, #36
 3093 0370 5010A0E3 		mov	r1, #80
 3094 0374 0F20A0E3 		mov	r2, #15
 3095 0378 24309FE5 		ldr	r3, .L40
 3096 037c FEFFFFEB 		bl	lcd_puts
 176:../proyecto.c ****     lcd_puts( 20, 192, BLACK, "Para continuar pulse cualquier tecla" );
 3097              		.loc 1 176 0
 3098 0380 1400A0E3 		mov	r0, #20
 3099 0384 C010A0E3 		mov	r1, #192
 3100 0388 0F20A0E3 		mov	r2, #15
 3101 038c 14309FE5 		ldr	r3, .L40+4
 3102 0390 FEFFFFEB 		bl	lcd_puts
 177:../proyecto.c ****     keypad_getchar();
 3103              		.loc 1 177 0
 3104 0394 FEFFFFEB 		bl	keypad_getchar
 178:../proyecto.c **** }
 3105              		.loc 1 178 0
 3106 0398 0CD04BE2 		sub	sp, fp, #12
 3107 039c 00689DE8 		ldmfd	sp, {fp, sp, lr}
 3108 03a0 1EFF2FE1 		bx	lr
 3109              	.L41:
 3110              		.align	2
 3111              	.L40:
 3112 03a4 64000000 		.word	.LC4
 3113 03a8 88000000 		.word	.LC5
 3114              		.cfi_endproc
 3115              	.LFE11:
 3117              		.data
 3120              	init.4543:
 3121 0000 01       		.byte	1
 3122              		.bss
 3123              	state.4548:
 3124 0000 00       		.space	1
 3125              		.text
 3126              	.Letext0:
DEFINED SYMBOLS
                            *ABS*:00000000 proyecto.c
                            *COM*:000004d0 game
C:\Users\Mendi\AppData\Local\Temp\cc2u5Kh2.s:2521   .text:00000000 $a
C:\Users\Mendi\AppData\Local\Temp\cc2u5Kh2.s:2524   .text:00000000 main
C:\Users\Mendi\AppData\Local\Temp\cc2u5Kh2.s:3000   .text:000002d8 wellcomeScreen_draw
C:\Users\Mendi\AppData\Local\Temp\cc2u5Kh2.s:3072   .text:0000035c gameOverScreen_draw
C:\Users\Mendi\AppData\Local\Temp\cc2u5Kh2.s:2618   .text:000000c8 $d
C:\Users\Mendi\AppData\Local\Temp\cc2u5Kh2.s:2869   .text:000001d4 pbs_read_task
C:\Users\Mendi\AppData\Local\Temp\cc2u5Kh2.s:2628   .text:000000e4 $a
C:\Users\Mendi\AppData\Local\Temp\cc2u5Kh2.s:2631   .text:000000e4 player_update_task
C:\Users\Mendi\AppData\Local\Temp\cc2u5Kh2.s:2658   .text:000000fc ufo_launch_task
C:\Users\Mendi\AppData\Local\Temp\cc2u5Kh2.s:2693   .text:00000134 $d
C:\Users\Mendi\AppData\Local\Temp\cc2u5Kh2.s:2697   .text:00000138 $a
C:\Users\Mendi\AppData\Local\Temp\cc2u5Kh2.s:2700   .text:00000138 ufo_update_task
C:\Users\Mendi\AppData\Local\Temp\cc2u5Kh2.s:2727   .text:00000158 $d
C:\Users\Mendi\AppData\Local\Temp\cc2u5Kh2.s:2731   .text:0000015c $a
C:\Users\Mendi\AppData\Local\Temp\cc2u5Kh2.s:2734   .text:0000015c playerShot_update_task
C:\Users\Mendi\AppData\Local\Temp\cc2u5Kh2.s:2761   .text:00000174 swarm_update_task
C:\Users\Mendi\AppData\Local\Temp\cc2u5Kh2.s:2788   .text:0000018c enemyShot_update_task
C:\Users\Mendi\AppData\Local\Temp\cc2u5Kh2.s:2815   .text:000001a4 enemyShot_launch_task
C:\Users\Mendi\AppData\Local\Temp\cc2u5Kh2.s:2842   .text:000001bc keys_read_task
C:\Users\Mendi\AppData\Local\Temp\cc2u5Kh2.s:2977   .text:000002cc $d
C:\Users\Mendi\AppData\Local\Temp\cc2u5Kh2.s:3120   .data:00000000 init.4543
C:\Users\Mendi\AppData\Local\Temp\cc2u5Kh2.s:3123   .bss:00000000 state.4548
C:\Users\Mendi\AppData\Local\Temp\cc2u5Kh2.s:2984   .rodata:00000000 $d
C:\Users\Mendi\AppData\Local\Temp\cc2u5Kh2.s:2997   .text:000002d8 $a
C:\Users\Mendi\AppData\Local\Temp\cc2u5Kh2.s:3054   .text:0000034c $d
C:\Users\Mendi\AppData\Local\Temp\cc2u5Kh2.s:3069   .text:0000035c $a
C:\Users\Mendi\AppData\Local\Temp\cc2u5Kh2.s:3112   .text:000003a4 $d
C:\Users\Mendi\AppData\Local\Temp\cc2u5Kh2.s:3124   .bss:00000000 $d
                     .debug_frame:00000010 $d

UNDEFINED SYMBOLS
sys_init
segs_init
timers_init
keypad_init
pbs_init
lcd_init
iic_init
uda1341ts_init
iis_init
lcd_on
random_init
game_init
scheduler_init
create_task
game_launch
timer0_open_tick
dispacher
timer0_close
game_restart
scheduler
random_get
ufo_launch
ufo_update
pb_pressed
pb_scan
credit_update
lcd_clear
lcd_puts_x2
lcd_puts
keypad_getchar
