   1              		.cpu arm7tdmi
   2              		.fpu softvfp
   3              		.eabi_attribute 20, 1
   4              		.eabi_attribute 21, 1
   5              		.eabi_attribute 23, 3
   6              		.eabi_attribute 24, 1
   7              		.eabi_attribute 25, 1
   8              		.eabi_attribute 26, 1
   9              		.eabi_attribute 30, 6
  10              		.eabi_attribute 18, 4
  11              		.file	"score.c"
  21              	.Ltext0:
  22              		.file 1 "../score.c"
 1303              		.align	2
 1304              		.global	score_init
 1306              	score_init:
 1307              	.LFB0:
   1:../score.c    **** #include <lcd.h>
   2:../score.c    **** #include "config.h"
   3:../score.c    **** #include "score.h"
   4:../score.c    **** 
   5:../score.c    **** static void score_draw(Score *self);
   6:../score.c    **** 
   7:../score.c    **** void score_init(Score *self) {
 1308              		.loc 1 7 0
 1309              		.cfi_startproc
 1310              		@ Function supports interworking.
 1311              		@ args = 0, pretend = 0, frame = 8
 1312              		@ frame_needed = 1, uses_anonymous_args = 0
 1313 0000 0DC0A0E1 		mov	ip, sp
 1314              	.LCFI0:
 1315              		.cfi_def_cfa_register 12
 1316 0004 00D82DE9 		stmfd	sp!, {fp, ip, lr, pc}
 1317 0008 04B04CE2 		sub	fp, ip, #4
 1318              		.cfi_offset 14, -8
 1319              		.cfi_offset 13, -12
 1320              		.cfi_offset 11, -16
 1321              	.LCFI1:
 1322              		.cfi_def_cfa 11, 4
 1323 000c 08D04DE2 		sub	sp, sp, #8
 1324 0010 10000BE5 		str	r0, [fp, #-16]
   8:../score.c    **** 	self->value = 0;
 1325              		.loc 1 8 0
 1326 0014 10301BE5 		ldr	r3, [fp, #-16]
 1327 0018 0020A0E3 		mov	r2, #0
 1328 001c B020C3E1 		strh	r2, [r3, #0]	@ movhi
   9:../score.c    **** 	self->col = (18 + 7) * FONT_WIDTH * 2;
 1329              		.loc 1 9 0
 1330 0020 10301BE5 		ldr	r3, [fp, #-16]
 1331 0024 C820A0E3 		mov	r2, #200
 1332 0028 B220C3E1 		strh	r2, [r3, #2]	@ movhi
  10:../score.c    **** 	self->row = 0;
 1333              		.loc 1 10 0
 1334 002c 10301BE5 		ldr	r3, [fp, #-16]
 1335 0030 0020A0E3 		mov	r2, #0
 1336 0034 B420C3E1 		strh	r2, [r3, #4]	@ movhi
  11:../score.c    **** }
 1337              		.loc 1 11 0
 1338 0038 0CD04BE2 		sub	sp, fp, #12
 1339 003c 00689DE8 		ldmfd	sp, {fp, sp, lr}
 1340 0040 1EFF2FE1 		bx	lr
 1341              		.cfi_endproc
 1342              	.LFE0:
 1344              		.align	2
 1346              	score_draw:
 1347              	.LFB1:
  12:../score.c    **** 
  13:../score.c    **** static void score_draw(Score *self) {
 1348              		.loc 1 13 0
 1349              		.cfi_startproc
 1350              		@ Function supports interworking.
 1351              		@ args = 0, pretend = 0, frame = 8
 1352              		@ frame_needed = 1, uses_anonymous_args = 0
 1353 0044 0DC0A0E1 		mov	ip, sp
 1354              	.LCFI2:
 1355              		.cfi_def_cfa_register 12
 1356 0048 00D82DE9 		stmfd	sp!, {fp, ip, lr, pc}
 1357 004c 04B04CE2 		sub	fp, ip, #4
 1358              		.cfi_offset 14, -8
 1359              		.cfi_offset 13, -12
 1360              		.cfi_offset 11, -16
 1361              	.LCFI3:
 1362              		.cfi_def_cfa 11, 4
 1363 0050 08D04DE2 		sub	sp, sp, #8
 1364 0054 10000BE5 		str	r0, [fp, #-16]
  14:../score.c    **** 	lcd_putint(self->col, self->row, BLACK, self->value);
 1365              		.loc 1 14 0
 1366 0058 10301BE5 		ldr	r3, [fp, #-16]
 1367 005c B230D3E1 		ldrh	r3, [r3, #2]
 1368 0060 0338A0E1 		mov	r3, r3, asl #16
 1369 0064 2318A0E1 		mov	r1, r3, lsr #16
 1370 0068 10301BE5 		ldr	r3, [fp, #-16]
 1371 006c B430D3E1 		ldrh	r3, [r3, #4]
 1372 0070 0338A0E1 		mov	r3, r3, asl #16
 1373 0074 2328A0E1 		mov	r2, r3, lsr #16
 1374 0078 10301BE5 		ldr	r3, [fp, #-16]
 1375 007c B030D3E1 		ldrh	r3, [r3, #0]
 1376 0080 0100A0E1 		mov	r0, r1
 1377 0084 0210A0E1 		mov	r1, r2
 1378 0088 0F20A0E3 		mov	r2, #15
 1379 008c FEFFFFEB 		bl	lcd_putint
  15:../score.c    **** }
 1380              		.loc 1 15 0
 1381 0090 0CD04BE2 		sub	sp, fp, #12
 1382 0094 00689DE8 		ldmfd	sp, {fp, sp, lr}
 1383 0098 1EFF2FE1 		bx	lr
 1384              		.cfi_endproc
 1385              	.LFE1:
 1387              		.align	2
 1388              		.global	score_launch
 1390              	score_launch:
 1391              	.LFB2:
  16:../score.c    **** 
  17:../score.c    **** void score_launch(Score *self) {
 1392              		.loc 1 17 0
 1393              		.cfi_startproc
 1394              		@ Function supports interworking.
 1395              		@ args = 0, pretend = 0, frame = 8
 1396              		@ frame_needed = 1, uses_anonymous_args = 0
 1397 009c 0DC0A0E1 		mov	ip, sp
 1398              	.LCFI4:
 1399              		.cfi_def_cfa_register 12
 1400 00a0 00D82DE9 		stmfd	sp!, {fp, ip, lr, pc}
 1401 00a4 04B04CE2 		sub	fp, ip, #4
 1402              		.cfi_offset 14, -8
 1403              		.cfi_offset 13, -12
 1404              		.cfi_offset 11, -16
 1405              	.LCFI5:
 1406              		.cfi_def_cfa 11, 4
 1407 00a8 08D04DE2 		sub	sp, sp, #8
 1408 00ac 10000BE5 		str	r0, [fp, #-16]
  18:../score.c    **** 	score_draw(self);
 1409              		.loc 1 18 0
 1410 00b0 10001BE5 		ldr	r0, [fp, #-16]
 1411 00b4 E2FFFFEB 		bl	score_draw
  19:../score.c    **** }
 1412              		.loc 1 19 0
 1413 00b8 0CD04BE2 		sub	sp, fp, #12
 1414 00bc 00689DE8 		ldmfd	sp, {fp, sp, lr}
 1415 00c0 1EFF2FE1 		bx	lr
 1416              		.cfi_endproc
 1417              	.LFE2:
 1419              		.align	2
 1420              		.global	score_update
 1422              	score_update:
 1423              	.LFB3:
  20:../score.c    **** 
  21:../score.c    **** void score_update(Score *self, uint16 num) {
 1424              		.loc 1 21 0
 1425              		.cfi_startproc
 1426              		@ Function supports interworking.
 1427              		@ args = 0, pretend = 0, frame = 8
 1428              		@ frame_needed = 1, uses_anonymous_args = 0
 1429 00c4 0DC0A0E1 		mov	ip, sp
 1430              	.LCFI6:
 1431              		.cfi_def_cfa_register 12
 1432 00c8 00D82DE9 		stmfd	sp!, {fp, ip, lr, pc}
 1433 00cc 04B04CE2 		sub	fp, ip, #4
 1434              		.cfi_offset 14, -8
 1435              		.cfi_offset 13, -12
 1436              		.cfi_offset 11, -16
 1437              	.LCFI7:
 1438              		.cfi_def_cfa 11, 4
 1439 00d0 08D04DE2 		sub	sp, sp, #8
 1440 00d4 10000BE5 		str	r0, [fp, #-16]
 1441 00d8 0130A0E1 		mov	r3, r1
 1442 00dc B2314BE1 		strh	r3, [fp, #-18]	@ movhi
  22:../score.c    **** 	self->value += num;
 1443              		.loc 1 22 0
 1444 00e0 10301BE5 		ldr	r3, [fp, #-16]
 1445 00e4 B020D3E1 		ldrh	r2, [r3, #0]
 1446 00e8 B2315BE1 		ldrh	r3, [fp, #-18]	@ movhi
 1447 00ec 033082E0 		add	r3, r2, r3
 1448 00f0 0338A0E1 		mov	r3, r3, asl #16
 1449 00f4 2328A0E1 		mov	r2, r3, lsr #16
 1450 00f8 10301BE5 		ldr	r3, [fp, #-16]
 1451 00fc B020C3E1 		strh	r2, [r3, #0]	@ movhi
  23:../score.c    **** 	score_draw(self);
 1452              		.loc 1 23 0
 1453 0100 10001BE5 		ldr	r0, [fp, #-16]
 1454 0104 CEFFFFEB 		bl	score_draw
  24:../score.c    **** }
 1455              		.loc 1 24 0
 1456 0108 0CD04BE2 		sub	sp, fp, #12
 1457 010c 00689DE8 		ldmfd	sp, {fp, sp, lr}
 1458 0110 1EFF2FE1 		bx	lr
 1459              		.cfi_endproc
 1460              	.LFE3:
 1462              	.Letext0: