   1              		.cpu arm7tdmi
   2              		.fpu softvfp
   3              		.eabi_attribute 20, 1
   4              		.eabi_attribute 21, 1
   5              		.eabi_attribute 23, 3
   6              		.eabi_attribute 24, 1
   7              		.eabi_attribute 25, 1
   8              		.eabi_attribute 26, 1
   9              		.eabi_attribute 30, 6
  10              		.eabi_attribute 18, 4
  11              		.file	"sprite.c"
  21              	.Ltext0:
  22              		.file 1 "../sprite.c"
 1303              		.align	2
 1304              		.global	sprite_draw
 1306              	sprite_draw:
 1307              	.LFB0:
   1:../sprite.c   **** #include "config.h"
   2:../sprite.c   **** #include "sprite.h"
   3:../sprite.c   **** 
   4:../sprite.c   **** extern uint8 lcd_buffer[];
   5:../sprite.c   **** 
   6:../sprite.c   **** boolean sprite_draw( Sprite *self, uint16 col, uint16 row )
   7:../sprite.c   **** {
 1308              		.loc 1 7 0
 1309              		.cfi_startproc
 1310              		@ Function supports interworking.
 1311              		@ args = 0, pretend = 0, frame = 24
 1312              		@ frame_needed = 1, uses_anonymous_args = 0
 1313 0000 0DC0A0E1 		mov	ip, sp
 1314              	.LCFI0:
 1315              		.cfi_def_cfa_register 12
 1316 0004 00D82DE9 		stmfd	sp!, {fp, ip, lr, pc}
 1317 0008 04B04CE2 		sub	fp, ip, #4
 1318              		.cfi_offset 14, -8
 1319              		.cfi_offset 13, -12
 1320              		.cfi_offset 11, -16
 1321              	.LCFI1:
 1322              		.cfi_def_cfa 11, 4
 1323 000c 18D04DE2 		sub	sp, sp, #24
 1324 0010 20000BE5 		str	r0, [fp, #-32]
 1325 0014 0230A0E1 		mov	r3, r2
 1326 0018 B2124BE1 		strh	r1, [fp, #-34]	@ movhi
 1327 001c B4324BE1 		strh	r3, [fp, #-36]	@ movhi
   8:../sprite.c   ****     boolean collision;
   9:../sprite.c   ****     uint16 x, y, spriteIdx, lcdOffset;
  10:../sprite.c   ****       
  11:../sprite.c   ****     collision = FALSE;
 1328              		.loc 1 11 0
 1329 0020 0030A0E3 		mov	r3, #0
 1330 0024 0D304BE5 		strb	r3, [fp, #-13]
  12:../sprite.c   ****     for( y=0, spriteIdx=0, lcdOffset=row*2*GAME_WIDTH+col; y<self->height*2; y++, lcdOffset+=GAME_W
 1331              		.loc 1 12 0
 1332 0028 0030A0E3 		mov	r3, #0
 1333 002c B2314BE1 		strh	r3, [fp, #-18]	@ movhi
 1334 0030 0030A0E3 		mov	r3, #0
 1335 0034 B4314BE1 		strh	r3, [fp, #-20]	@ movhi
 1336 0038 B4325BE1 		ldrh	r3, [fp, #-36]	@ movhi
 1337 003c 0320A0E1 		mov	r2, r3	@ movhi
 1338 0040 0221A0E1 		mov	r2, r2, asl #2
 1339 0044 033082E0 		add	r3, r2, r3
 1340 0048 0333A0E1 		mov	r3, r3, asl #6
 1341 004c 0338A0E1 		mov	r3, r3, asl #16
 1342 0050 2328A0E1 		mov	r2, r3, lsr #16
 1343 0054 B2325BE1 		ldrh	r3, [fp, #-34]	@ movhi
 1344 0058 033082E0 		add	r3, r2, r3
 1345 005c B6314BE1 		strh	r3, [fp, #-22]	@ movhi
 1346 0060 2D0000EA 		b	.L2
 1347              	.L7:
  13:../sprite.c   ****         for( x=0; x<self->width; x++, spriteIdx++ )
 1348              		.loc 1 13 0
 1349 0064 0030A0E3 		mov	r3, #0
 1350 0068 B0314BE1 		strh	r3, [fp, #-16]	@ movhi
 1351 006c 1F0000EA 		b	.L3
 1352              	.L6:
  14:../sprite.c   ****             if( self->pixMap[spriteIdx] )
 1353              		.loc 1 14 0
 1354 0070 20301BE5 		ldr	r3, [fp, #-32]
 1355 0074 042093E5 		ldr	r2, [r3, #4]
 1356 0078 B4315BE1 		ldrh	r3, [fp, #-20]
 1357 007c 033082E0 		add	r3, r2, r3
 1358 0080 0030D3E5 		ldrb	r3, [r3, #0]	@ zero_extendqisi2
 1359 0084 000053E3 		cmp	r3, #0
 1360 0088 1200000A 		beq	.L4
  15:../sprite.c   ****             {
  16:../sprite.c   ****                 if( lcd_buffer[lcdOffset + x] )
 1361              		.loc 1 16 0
 1362 008c B6215BE1 		ldrh	r2, [fp, #-22]
 1363 0090 B0315BE1 		ldrh	r3, [fp, #-16]
 1364 0094 033082E0 		add	r3, r2, r3
 1365 0098 A8209FE5 		ldr	r2, .L8
 1366 009c 0330D2E7 		ldrb	r3, [r2, r3]	@ zero_extendqisi2
 1367 00a0 000053E3 		cmp	r3, #0
 1368 00a4 0100000A 		beq	.L5
  17:../sprite.c   ****                     collision = TRUE;
 1369              		.loc 1 17 0
 1370 00a8 0130A0E3 		mov	r3, #1
 1371 00ac 0D304BE5 		strb	r3, [fp, #-13]
 1372              	.L5:
  18:../sprite.c   ****                 lcd_buffer[lcdOffset + x] = self->pixMap[spriteIdx];
 1373              		.loc 1 18 0
 1374 00b0 B6215BE1 		ldrh	r2, [fp, #-22]
 1375 00b4 B0315BE1 		ldrh	r3, [fp, #-16]
 1376 00b8 033082E0 		add	r3, r2, r3
 1377 00bc 20201BE5 		ldr	r2, [fp, #-32]
 1378 00c0 041092E5 		ldr	r1, [r2, #4]
 1379 00c4 B4215BE1 		ldrh	r2, [fp, #-20]
 1380 00c8 022081E0 		add	r2, r1, r2
 1381 00cc 0010D2E5 		ldrb	r1, [r2, #0]	@ zero_extendqisi2
 1382 00d0 70209FE5 		ldr	r2, .L8
 1383 00d4 0310C2E7 		strb	r1, [r2, r3]
 1384              	.L4:
  13:../sprite.c   ****         for( x=0; x<self->width; x++, spriteIdx++ )
 1385              		.loc 1 13 0
 1386 00d8 B0315BE1 		ldrh	r3, [fp, #-16]	@ movhi
 1387 00dc 013083E2 		add	r3, r3, #1
 1388 00e0 B0314BE1 		strh	r3, [fp, #-16]	@ movhi
 1389 00e4 B4315BE1 		ldrh	r3, [fp, #-20]	@ movhi
 1390 00e8 013083E2 		add	r3, r3, #1
 1391 00ec B4314BE1 		strh	r3, [fp, #-20]	@ movhi
 1392              	.L3:
  13:../sprite.c   ****         for( x=0; x<self->width; x++, spriteIdx++ )
 1393              		.loc 1 13 0 is_stmt 0 discriminator 1
 1394 00f0 20301BE5 		ldr	r3, [fp, #-32]
 1395 00f4 B030D3E1 		ldrh	r3, [r3, #0]
 1396 00f8 B0215BE1 		ldrh	r2, [fp, #-16]
 1397 00fc 030052E1 		cmp	r2, r3
 1398 0100 DAFFFF3A 		bcc	.L6
  12:../sprite.c   ****     for( y=0, spriteIdx=0, lcdOffset=row*2*GAME_WIDTH+col; y<self->height*2; y++, lcdOffset+=GAME_W
 1399              		.loc 1 12 0 is_stmt 1
 1400 0104 B2315BE1 		ldrh	r3, [fp, #-18]	@ movhi
 1401 0108 013083E2 		add	r3, r3, #1
 1402 010c B2314BE1 		strh	r3, [fp, #-18]	@ movhi
 1403 0110 B6315BE1 		ldrh	r3, [fp, #-22]	@ movhi
 1404 0114 A03083E2 		add	r3, r3, #160
 1405 0118 B6314BE1 		strh	r3, [fp, #-22]	@ movhi
 1406              	.L2:
  12:../sprite.c   ****     for( y=0, spriteIdx=0, lcdOffset=row*2*GAME_WIDTH+col; y<self->height*2; y++, lcdOffset+=GAME_W
 1407              		.loc 1 12 0 is_stmt 0 discriminator 1
 1408 011c B2215BE1 		ldrh	r2, [fp, #-18]
 1409 0120 20301BE5 		ldr	r3, [fp, #-32]
 1410 0124 B230D3E1 		ldrh	r3, [r3, #2]
 1411 0128 8330A0E1 		mov	r3, r3, asl #1
 1412 012c 030052E1 		cmp	r2, r3
 1413 0130 CBFFFFBA 		blt	.L7
  19:../sprite.c   ****             }
  20:../sprite.c   ****     return collision;
 1414              		.loc 1 20 0 is_stmt 1
 1415 0134 0D305BE5 		ldrb	r3, [fp, #-13]	@ zero_extendqisi2
  21:../sprite.c   **** }
 1416              		.loc 1 21 0
 1417 0138 0300A0E1 		mov	r0, r3
 1418 013c 0CD04BE2 		sub	sp, fp, #12
 1419 0140 00689DE8 		ldmfd	sp, {fp, sp, lr}
 1420 0144 1EFF2FE1 		bx	lr
 1421              	.L9:
 1422              		.align	2
 1423              	.L8:
 1424 0148 00000000 		.word	lcd_buffer
 1425              		.cfi_endproc
 1426              	.LFE0:
 1428              		.align	2
 1429              		.global	sprite_clear
 1431              	sprite_clear:
 1432              	.LFB1:
  22:../sprite.c   **** 
  23:../sprite.c   **** void sprite_clear( Sprite *self, uint16 col, uint16 row )
  24:../sprite.c   **** {
 1433              		.loc 1 24 0
 1434              		.cfi_startproc
 1435              		@ Function supports interworking.
 1436              		@ args = 0, pretend = 0, frame = 16
 1437              		@ frame_needed = 1, uses_anonymous_args = 0
 1438 014c 0DC0A0E1 		mov	ip, sp
 1439              	.LCFI2:
 1440              		.cfi_def_cfa_register 12
 1441 0150 00D82DE9 		stmfd	sp!, {fp, ip, lr, pc}
 1442 0154 04B04CE2 		sub	fp, ip, #4
 1443              		.cfi_offset 14, -8
 1444              		.cfi_offset 13, -12
 1445              		.cfi_offset 11, -16
 1446              	.LCFI3:
 1447              		.cfi_def_cfa 11, 4
 1448 0158 10D04DE2 		sub	sp, sp, #16
 1449 015c 18000BE5 		str	r0, [fp, #-24]
 1450 0160 0230A0E1 		mov	r3, r2
 1451 0164 BA114BE1 		strh	r1, [fp, #-26]	@ movhi
 1452 0168 BC314BE1 		strh	r3, [fp, #-28]	@ movhi
  25:../sprite.c   ****     uint16 x, y, spriteIdx, lcdOffset;
  26:../sprite.c   **** 
  27:../sprite.c   ****     for( y=0, spriteIdx=0, lcdOffset=row*2*GAME_WIDTH+col; y<self->height*2; y++, lcdOffset+=GAME_W
 1453              		.loc 1 27 0
 1454 016c 0030A0E3 		mov	r3, #0
 1455 0170 B0314BE1 		strh	r3, [fp, #-16]	@ movhi
 1456 0174 0030A0E3 		mov	r3, #0
 1457 0178 B2314BE1 		strh	r3, [fp, #-18]	@ movhi
 1458 017c BC315BE1 		ldrh	r3, [fp, #-28]	@ movhi
 1459 0180 0320A0E1 		mov	r2, r3	@ movhi
 1460 0184 0221A0E1 		mov	r2, r2, asl #2
 1461 0188 033082E0 		add	r3, r2, r3
 1462 018c 0333A0E1 		mov	r3, r3, asl #6
 1463 0190 0338A0E1 		mov	r3, r3, asl #16
 1464 0194 2328A0E1 		mov	r2, r3, lsr #16
 1465 0198 BA315BE1 		ldrh	r3, [fp, #-26]	@ movhi
 1466 019c 033082E0 		add	r3, r2, r3
 1467 01a0 B4314BE1 		strh	r3, [fp, #-20]	@ movhi
 1468 01a4 200000EA 		b	.L11
 1469              	.L15:
  28:../sprite.c   ****     {
  29:../sprite.c   ****         for( x=0; x<self->width; x++, spriteIdx++ )
 1470              		.loc 1 29 0
 1471 01a8 0030A0E3 		mov	r3, #0
 1472 01ac BE304BE1 		strh	r3, [fp, #-14]	@ movhi
 1473 01b0 120000EA 		b	.L12
 1474              	.L14:
  30:../sprite.c   ****         {
  31:../sprite.c   ****             if( self->pixMap[spriteIdx] != 0 )
 1475              		.loc 1 31 0
 1476 01b4 18301BE5 		ldr	r3, [fp, #-24]
 1477 01b8 042093E5 		ldr	r2, [r3, #4]
 1478 01bc B2315BE1 		ldrh	r3, [fp, #-18]
 1479 01c0 033082E0 		add	r3, r2, r3
 1480 01c4 0030D3E5 		ldrb	r3, [r3, #0]	@ zero_extendqisi2
 1481 01c8 000053E3 		cmp	r3, #0
 1482 01cc 0500000A 		beq	.L13
  32:../sprite.c   ****             {
  33:../sprite.c   ****                 lcd_buffer[lcdOffset + x] = 0;
 1483              		.loc 1 33 0
 1484 01d0 B4215BE1 		ldrh	r2, [fp, #-20]
 1485 01d4 BE305BE1 		ldrh	r3, [fp, #-14]
 1486 01d8 033082E0 		add	r3, r2, r3
 1487 01dc 6C209FE5 		ldr	r2, .L16
 1488 01e0 0010A0E3 		mov	r1, #0
 1489 01e4 0310C2E7 		strb	r1, [r2, r3]
 1490              	.L13:
  29:../sprite.c   ****         for( x=0; x<self->width; x++, spriteIdx++ )
 1491              		.loc 1 29 0
 1492 01e8 BE305BE1 		ldrh	r3, [fp, #-14]	@ movhi
 1493 01ec 013083E2 		add	r3, r3, #1
 1494 01f0 BE304BE1 		strh	r3, [fp, #-14]	@ movhi
 1495 01f4 B2315BE1 		ldrh	r3, [fp, #-18]	@ movhi
 1496 01f8 013083E2 		add	r3, r3, #1
 1497 01fc B2314BE1 		strh	r3, [fp, #-18]	@ movhi
 1498              	.L12:
  29:../sprite.c   ****         for( x=0; x<self->width; x++, spriteIdx++ )
 1499              		.loc 1 29 0 is_stmt 0 discriminator 1
 1500 0200 18301BE5 		ldr	r3, [fp, #-24]
 1501 0204 B030D3E1 		ldrh	r3, [r3, #0]
 1502 0208 BE205BE1 		ldrh	r2, [fp, #-14]
 1503 020c 030052E1 		cmp	r2, r3
 1504 0210 E7FFFF3A 		bcc	.L14
  27:../sprite.c   ****     for( y=0, spriteIdx=0, lcdOffset=row*2*GAME_WIDTH+col; y<self->height*2; y++, lcdOffset+=GAME_W
 1505              		.loc 1 27 0 is_stmt 1
 1506 0214 B0315BE1 		ldrh	r3, [fp, #-16]	@ movhi
 1507 0218 013083E2 		add	r3, r3, #1
 1508 021c B0314BE1 		strh	r3, [fp, #-16]	@ movhi
 1509 0220 B4315BE1 		ldrh	r3, [fp, #-20]	@ movhi
 1510 0224 A03083E2 		add	r3, r3, #160
 1511 0228 B4314BE1 		strh	r3, [fp, #-20]	@ movhi
 1512              	.L11:
  27:../sprite.c   ****     for( y=0, spriteIdx=0, lcdOffset=row*2*GAME_WIDTH+col; y<self->height*2; y++, lcdOffset+=GAME_W
 1513              		.loc 1 27 0 is_stmt 0 discriminator 1
 1514 022c B0215BE1 		ldrh	r2, [fp, #-16]
 1515 0230 18301BE5 		ldr	r3, [fp, #-24]
 1516 0234 B230D3E1 		ldrh	r3, [r3, #2]
 1517 0238 8330A0E1 		mov	r3, r3, asl #1
 1518 023c 030052E1 		cmp	r2, r3
 1519 0240 D8FFFFBA 		blt	.L15
  34:../sprite.c   ****             }
  35:../sprite.c   ****         }
  36:../sprite.c   ****     }
  37:../sprite.c   **** }
 1520              		.loc 1 37 0 is_stmt 1
 1521 0244 0CD04BE2 		sub	sp, fp, #12
 1522 0248 00689DE8 		ldmfd	sp, {fp, sp, lr}
 1523 024c 1EFF2FE1 		bx	lr
 1524              	.L17:
 1525              		.align	2
 1526              	.L16:
 1527 0250 00000000 		.word	lcd_buffer
 1528              		.cfi_endproc
 1529              	.LFE1:
 1531              	.Letext0:
DEFINED SYMBOLS
                            *ABS*:00000000 sprite.c
C:\Users\USUARI~1\AppData\Local\Temp\ccJwY2Nx.s:1303   .text:00000000 $a
C:\Users\USUARI~1\AppData\Local\Temp\ccJwY2Nx.s:1306   .text:00000000 sprite_draw
C:\Users\USUARI~1\AppData\Local\Temp\ccJwY2Nx.s:1424   .text:00000148 $d
C:\Users\USUARI~1\AppData\Local\Temp\ccJwY2Nx.s:1428   .text:0000014c $a
C:\Users\USUARI~1\AppData\Local\Temp\ccJwY2Nx.s:1431   .text:0000014c sprite_clear
C:\Users\USUARI~1\AppData\Local\Temp\ccJwY2Nx.s:1527   .text:00000250 $d
                     .debug_frame:00000010 $d

UNDEFINED SYMBOLS
lcd_buffer
